target datalayout = "e-m:e-p270:32:32-p271:32:32-p272:64:64-i64:64-i128:128-f80:128-n8:16:32:64-S128"
target triple = "x86_64-pc-linux-gnu"

%class.bv_bound_chk_tactic = type <{ %class.tactic.base, [4 x i8], ptr, %class.params_ref, %struct.bv_bound_chk_stats, [4 x i8] }>
%class.tactic.base = type <{ %"class.user_propagator::core", i32 }>
%"class.user_propagator::core" = type { ptr }
%class.params_ref = type { ptr }
%struct.bv_bound_chk_stats = type { i32, i32, i32 }
%"class.bv_bound_chk_tactic::imp" = type { %struct.bv_bound_chk_rewriter }
%struct.bv_bound_chk_rewriter = type { %class.rewriter_tpl, %struct.bv_bound_chk_rewriter_cfg }
%class.rewriter_tpl = type { %class.rewriter_core, ptr, i32, %class.ptr_vector.1, %class.var_shifter, %class.inv_var_shifter, %class.obj_ref, %class.obj_ref.10, %class.obj_ref.10, %class.svector.11 }
%class.rewriter_core = type { ptr, ptr, i8, i8, %class.ptr_vector, ptr, %class.svector, %class.ref_vector, %class.ptr_vector, ptr, %class.ref_vector.3, %class.obj_hashtable, ptr, i32, %class.svector.8 }
%class.svector = type { %class.vector.0 }
%class.vector.0 = type { ptr }
%class.ref_vector = type { %class.ref_vector_core }
%class.ref_vector_core = type { %class.ref_manager_wrapper, %class.ptr_vector.1 }
%class.ref_manager_wrapper = type { ptr }
%class.ptr_vector = type { %class.vector }
%class.vector = type { ptr }
%class.ref_vector.3 = type { %class.ref_vector_core.4 }
%class.ref_vector_core.4 = type { %class.ref_manager_wrapper.5, %class.ptr_vector.6 }
%class.ref_manager_wrapper.5 = type { ptr }
%class.ptr_vector.6 = type { %class.vector.7 }
%class.vector.7 = type { ptr }
%class.obj_hashtable = type { %class.core_hashtable.base, [4 x i8] }
%class.core_hashtable.base = type <{ ptr, i32, i32, i32 }>
%class.svector.8 = type { %class.vector.9 }
%class.vector.9 = type { ptr }
%class.ptr_vector.1 = type { %class.vector.2 }
%class.vector.2 = type { ptr }
%class.var_shifter = type <{ %class.var_shifter_core, i32, i32, i32, [4 x i8] }>
%class.var_shifter_core = type { %class.rewriter_core }
%class.inv_var_shifter = type <{ %class.var_shifter_core, i32, [4 x i8] }>
%class.obj_ref = type { ptr, ptr }
%class.obj_ref.10 = type { ptr, ptr }
%class.svector.11 = type { %class.vector.12 }
%class.vector.12 = type { ptr }
%struct.bv_bound_chk_rewriter_cfg = type { ptr, i32, %class.bool_rewriter, i64, i64, ptr }
%class.bool_rewriter = type { ptr, i8, i8, i8, i8, i8, i8, i32, i8, i32, i32, i8, %class.ptr_vector.1, %class.ptr_vector.1, %class.svector.11, %class.svector.11 }

@_ZTV21bv_bound_chk_rewriter = linkonce_odr hidden unnamed_addr constant { [4 x ptr] } { [4 x ptr] [ptr null, ptr @_ZTI21bv_bound_chk_rewriter, ptr @_ZN21bv_bound_chk_rewriterD2Ev, ptr @_ZN21bv_bound_chk_rewriterD0Ev] }, comdat, align 8

; Function Attrs: inlinehint mustprogress nounwind uwtable
define linkonce_odr hidden void @_ZN25bv_bound_chk_rewriter_cfgD2Ev(ptr noundef nonnull align 8 dereferenceable(112) %0) unnamed_addr #5 comdat align 2 {
  %2 = alloca ptr, align 8
  store ptr %0, ptr %2, align 8, !tbaa !109
  %3 = load ptr, ptr %2, align 8
  %4 = getelementptr inbounds nuw %struct.bv_bound_chk_rewriter_cfg, ptr %3, i32 0, i32 2
  call void @_ZN13bool_rewriterD2Ev(ptr noundef nonnull align 8 dereferenceable(72) %4) #3
  ret void
}

; Function Attrs: inlinehint mustprogress nounwind uwtable
define linkonce_odr hidden void @_ZN21bv_bound_chk_rewriterD2Ev(ptr noundef nonnull align 8 dereferenceable(648) %0) unnamed_addr #5 comdat align 2 {
  %2 = alloca ptr, align 8
  store ptr %0, ptr %2, align 8, !tbaa !107
  %3 = load ptr, ptr %2, align 8
  store ptr getelementptr inbounds inrange(-16, 16) ({ [4 x ptr] }, ptr @_ZTV21bv_bound_chk_rewriter, i32 0, i32 0, i32 2), ptr %3, align 8, !tbaa !12
  %4 = getelementptr inbounds nuw %struct.bv_bound_chk_rewriter, ptr %3, i32 0, i32 1
  call void @_ZN25bv_bound_chk_rewriter_cfgD2Ev(ptr noundef nonnull align 8 dereferenceable(112) %4) #3
  call void @_ZN12rewriter_tplI25bv_bound_chk_rewriter_cfgED2Ev(ptr noundef nonnull align 8 dereferenceable(536) %3) #3
  ret void
}

; Function Attrs: inlinehint mustprogress nounwind uwtable
define linkonce_odr hidden void @_ZN19bv_bound_chk_tactic3impD2Ev(ptr noundef nonnull align 8 dereferenceable(648) %0) unnamed_addr #5 comdat align 2 {
  %2 = alloca ptr, align 8
  store ptr %0, ptr %2, align 8, !tbaa !31
  %3 = load ptr, ptr %2, align 8
  %4 = getelementptr inbounds nuw %"class.bv_bound_chk_tactic::imp", ptr %3, i32 0, i32 0
  call void @_ZN21bv_bound_chk_rewriterD2Ev(ptr noundef nonnull align 8 dereferenceable(648) %4) #3
  ret void
}

; Function Attrs: mustprogress nounwind uwtable
define linkonce_odr hidden void @_ZN15user_propagator4coreD2Ev(ptr noundef nonnull align 8 dereferenceable(8) %0) unnamed_addr #6 comdat align 2 {
  %2 = alloca ptr, align 8
  store ptr %0, ptr %2, align 8, !tbaa !59
  ret void
}

; Function Attrs: mustprogress uwtable
define linkonce_odr hidden void @_Z7deallocIN19bv_bound_chk_tactic3impEEvPT_(ptr noundef %0) #4 comdat {
  %2 = alloca ptr, align 8
  store ptr %0, ptr %2, align 8, !tbaa !31
  %3 = load ptr, ptr %2, align 8, !tbaa !31
  %4 = icmp eq ptr %3, null
  br i1 %4, label %5, label %6

5:                                                ; preds = %1
  br label %9

6:                                                ; preds = %1
  %7 = load ptr, ptr %2, align 8, !tbaa !31
  call void @_ZN19bv_bound_chk_tactic3impD2Ev(ptr noundef nonnull align 8 dereferenceable(648) %7) #3
  %8 = load ptr, ptr %2, align 8, !tbaa !31
  call void @_ZN6memory10deallocateEPv(ptr noundef %8)
  br label %9

9:                                                ; preds = %6, %5
  ret void
}

; Function Attrs: mustprogress nounwind uwtable
define hidden void @_ZN19bv_bound_chk_tacticD2Ev(ptr noundef nonnull align 8 dereferenceable(44) %0) unnamed_addr #6 align 2 personality ptr @__gxx_personality_v0 {
  %2 = alloca ptr, align 8
  store ptr %0, ptr %2, align 8, !tbaa !3
  %3 = load ptr, ptr %2, align 8
  store ptr getelementptr inbounds inrange(-16, 192) ({ [26 x ptr] }, ptr @_ZTV19bv_bound_chk_tactic, i32 0, i32 0, i32 2), ptr %3, align 8, !tbaa !12
  %4 = getelementptr inbounds nuw %class.bv_bound_chk_tactic, ptr %3, i32 0, i32 2
  %5 = load ptr, ptr %4, align 8, !tbaa !14
  invoke void @_Z7deallocIN19bv_bound_chk_tactic3impEEvPT_(ptr noundef %5)
          to label %6 unwind label %8

6:                                                ; preds = %1
  %7 = getelementptr inbounds nuw %class.bv_bound_chk_tactic, ptr %3, i32 0, i32 3
  call void @_ZN10params_refD1Ev(ptr noundef nonnull align 8 dereferenceable(8) %7) #3
  call void @_ZN15user_propagator4coreD2Ev(ptr noundef nonnull align 8 dereferenceable(12) %3) #3
  ret void

8:                                                ; preds = %1
  %9 = landingpad { ptr, i32 }
          catch ptr null
  %10 = extractvalue { ptr, i32 } %9, 0
  call void @__clang_call_terminate(ptr %10) #20
  unreachable
}