; Function Attrs: mustprogress nounwind uwtable
define hidden void @_ZN19bv_bound_chk_tacticD2Ev(ptr noundef nonnull align 8 dereferenceable(44) initializes((0, 8)) %0) unnamed_addr #4 align 2 personality ptr @__gxx_personality_v0 {
  store ptr getelementptr inbounds nuw inrange(-16, 192) (i8, ptr @_ZTV19bv_bound_chk_tactic, i64 16), ptr %0, align 8, !tbaa !9
  %2 = getelementptr inbounds nuw i8, ptr %0, i64 16
  %3 = load ptr, ptr %2, align 8, !tbaa !15
  %4 = icmp eq ptr %3, null
  br i1 %4, label %_Z7deallocIN19bv_bound_chk_tactic3impEEvPT_.exit, label %5

5:                                                ; preds = %1
  store ptr getelementptr inbounds nuw inrange(-16, 16) (i8, ptr @_ZTV21bv_bound_chk_rewriter, i64 16), ptr %3, align 8, !tbaa !9
  %6 = getelementptr inbounds nuw i8, ptr %3, i64 552
  tail call void @_ZN13bool_rewriterD2Ev(ptr noundef nonnull align 8 dereferenceable(72) %6) #19
  tail call void @_ZN12rewriter_tplI25bv_bound_chk_rewriter_cfgED2Ev(ptr noundef nonnull align 8 dereferenceable(648) %3) #19
  invoke void @_ZN6memory10deallocateEPv(ptr noundef nonnull %3)
          to label %_Z7deallocIN19bv_bound_chk_tactic3impEEvPT_.exit unwind label %8

_Z7deallocIN19bv_bound_chk_tactic3impEEvPT_.exit: ; preds = %1, %5
  %7 = getelementptr inbounds nuw i8, ptr %0, i64 24
  tail call void @_ZN10params_refD1Ev(ptr noundef nonnull align 8 dereferenceable(8) %7) #19
  ret void

8:                                                ; preds = %5
  %9 = landingpad { ptr, i32 }
          catch ptr null
  %10 = extractvalue { ptr, i32 } %9, 0
  tail call void @__clang_call_terminate(ptr %10) #20
  unreachable
}